target datalayout = "e-m:e-p270:32:32-p271:32:32-p272:64:64-i64:64-i128:128-f80:128-n8:16:32:64-S128"
target triple = "x86_64-pc-linux-gnu"

%struct.TLSX = type { i32, ptr, i32, i8, ptr }
%struct.SupportedCurve = type { i16, ptr }

; Function Attrs: nounwind uwtable
define internal ptr @TLSX_New(i32 noundef %0, ptr noundef %1, ptr noundef %2) #0 {
  %4 = alloca i32, align 4
  %5 = alloca ptr, align 8
  %6 = alloca ptr, align 8
  %7 = alloca ptr, align 8
  store i32 %0, ptr %4, align 4, !tbaa !12
  store ptr %1, ptr %5, align 8, !tbaa !54
  store ptr %2, ptr %6, align 8, !tbaa !54
  call void @llvm.lifetime.start.p0(i64 8, ptr %7) #8
  %8 = call ptr @wolfSSL_Malloc(i64 noundef 32)
  store ptr %8, ptr %7, align 8, !tbaa !77
  %9 = load ptr, ptr %7, align 8, !tbaa !77
  %10 = icmp ne ptr %9, null
  br i1 %10, label %11, label %22

11:                                               ; preds = %3
  %12 = load i32, ptr %4, align 4, !tbaa !12
  %13 = load ptr, ptr %7, align 8, !tbaa !77
  %14 = getelementptr inbounds nuw %struct.TLSX, ptr %13, i32 0, i32 0
  store i32 %12, ptr %14, align 8, !tbaa !78
  %15 = load ptr, ptr %5, align 8, !tbaa !54
  %16 = load ptr, ptr %7, align 8, !tbaa !77
  %17 = getelementptr inbounds nuw %struct.TLSX, ptr %16, i32 0, i32 1
  store ptr %15, ptr %17, align 8, !tbaa !103
  %18 = load ptr, ptr %7, align 8, !tbaa !77
  %19 = getelementptr inbounds nuw %struct.TLSX, ptr %18, i32 0, i32 3
  store i8 0, ptr %19, align 4, !tbaa !104
  %20 = load ptr, ptr %7, align 8, !tbaa !77
  %21 = getelementptr inbounds nuw %struct.TLSX, ptr %20, i32 0, i32 4
  store ptr null, ptr %21, align 8, !tbaa !80
  br label %22

22:                                               ; preds = %11, %3
  %23 = load ptr, ptr %7, align 8, !tbaa !77
  call void @llvm.lifetime.end.p0(i64 8, ptr %7) #8
  ret ptr %23
}

; Function Attrs: nounwind uwtable
define internal i32 @TLSX_SupportedCurve_Append(ptr noundef %0, i16 noundef zeroext %1, ptr noundef %2) #0 {
  %4 = alloca ptr, align 8
  %5 = alloca i16, align 2
  %6 = alloca ptr, align 8
  %7 = alloca i32, align 4
  store ptr %0, ptr %4, align 8, !tbaa !124
  store i16 %1, ptr %5, align 2, !tbaa !73
  store ptr %2, ptr %6, align 8, !tbaa !54
  call void @llvm.lifetime.start.p0(i64 4, ptr %7) #8
  store i32 -173, ptr %7, align 4, !tbaa !12
  br label %8

8:                                                ; preds = %31, %3
  %9 = load ptr, ptr %4, align 8, !tbaa !124
  %10 = icmp ne ptr %9, null
  br i1 %10, label %11, label %35

11:                                               ; preds = %8
  %12 = load ptr, ptr %4, align 8, !tbaa !124
  %13 = getelementptr inbounds nuw %struct.SupportedCurve, ptr %12, i32 0, i32 0
  %14 = load i16, ptr %13, align 8, !tbaa !132
  %15 = zext i16 %14 to i32
  %16 = load i16, ptr %5, align 2, !tbaa !73
  %17 = zext i16 %16 to i32
  %18 = icmp eq i32 %15, %17
  br i1 %18, label %19, label %20

19:                                               ; preds = %11
  store i32 0, ptr %7, align 4, !tbaa !12
  br label %35

20:                                               ; preds = %11
  %21 = load ptr, ptr %4, align 8, !tbaa !124
  %22 = getelementptr inbounds nuw %struct.SupportedCurve, ptr %21, i32 0, i32 1
  %23 = load ptr, ptr %22, align 8, !tbaa !127
  %24 = icmp eq ptr %23, null
  br i1 %24, label %25, label %31

25:                                               ; preds = %20
  %26 = load ptr, ptr %4, align 8, !tbaa !124
  %27 = getelementptr inbounds nuw %struct.SupportedCurve, ptr %26, i32 0, i32 1
  %28 = load i16, ptr %5, align 2, !tbaa !73
  %29 = load ptr, ptr %6, align 8, !tbaa !54
  %30 = call i32 @TLSX_SupportedCurve_New(ptr noundef %27, i16 noundef zeroext %28, ptr noundef %29)
  store i32 %30, ptr %7, align 4, !tbaa !12
  br label %35

31:                                               ; preds = %20
  %32 = load ptr, ptr %4, align 8, !tbaa !124
  %33 = getelementptr inbounds nuw %struct.SupportedCurve, ptr %32, i32 0, i32 1
  %34 = load ptr, ptr %33, align 8, !tbaa !127
  store ptr %34, ptr %4, align 8, !tbaa !124
  br label %8, !llvm.loop !158

35:                                               ; preds = %25, %19, %8
  %36 = load i32, ptr %7, align 4, !tbaa !12
  call void @llvm.lifetime.end.p0(i64 4, ptr %7) #8
  ret i32 %36
}

; Function Attrs: nounwind uwtable
define i32 @TLSX_Push(ptr noundef %0, i32 noundef %1, ptr noundef %2, ptr noundef %3) #0 {
  %5 = alloca i32, align 4
  %6 = alloca ptr, align 8
  %7 = alloca i32, align 4
  %8 = alloca ptr, align 8
  %9 = alloca ptr, align 8
  %10 = alloca ptr, align 8
  %11 = alloca i32, align 4
  %12 = alloca ptr, align 8
  store ptr %0, ptr %6, align 8, !tbaa !75
  store i32 %1, ptr %7, align 4, !tbaa !12
  store ptr %2, ptr %8, align 8, !tbaa !54
  store ptr %3, ptr %9, align 8, !tbaa !54
  call void @llvm.lifetime.start.p0(i64 8, ptr %10) #8
  %13 = load i32, ptr %7, align 4, !tbaa !12
  %14 = load ptr, ptr %8, align 8, !tbaa !54
  %15 = load ptr, ptr %9, align 8, !tbaa !54
  %16 = call ptr @TLSX_New(i32 noundef %13, ptr noundef %14, ptr noundef %15)
  store ptr %16, ptr %10, align 8, !tbaa !77
  %17 = load ptr, ptr %10, align 8, !tbaa !77
  %18 = icmp eq ptr %17, null
  br i1 %18, label %19, label %20

19:                                               ; preds = %4
  store i32 -125, ptr %5, align 4
  store i32 1, ptr %11, align 4
  br label %60

20:                                               ; preds = %4
  %21 = load ptr, ptr %6, align 8, !tbaa !75
  %22 = load ptr, ptr %21, align 8, !tbaa !77
  %23 = load ptr, ptr %10, align 8, !tbaa !77
  %24 = getelementptr inbounds nuw %struct.TLSX, ptr %23, i32 0, i32 4
  store ptr %22, ptr %24, align 8, !tbaa !80
  %25 = load ptr, ptr %10, align 8, !tbaa !77
  %26 = load ptr, ptr %6, align 8, !tbaa !75
  store ptr %25, ptr %26, align 8, !tbaa !77
  br label %27

27:                                               ; preds = %54, %20
  %28 = load ptr, ptr %10, align 8, !tbaa !77
  %29 = getelementptr inbounds nuw %struct.TLSX, ptr %28, i32 0, i32 4
  %30 = load ptr, ptr %29, align 8, !tbaa !80
  %31 = icmp ne ptr %30, null
  br i1 %31, label %32, label %53

32:                                               ; preds = %27
  %33 = load ptr, ptr %10, align 8, !tbaa !77
  %34 = getelementptr inbounds nuw %struct.TLSX, ptr %33, i32 0, i32 4
  %35 = load ptr, ptr %34, align 8, !tbaa !80
  %36 = getelementptr inbounds nuw %struct.TLSX, ptr %35, i32 0, i32 0
  %37 = load i32, ptr %36, align 8, !tbaa !78
  %38 = load i32, ptr %7, align 4, !tbaa !12
  %39 = icmp eq i32 %37, %38
  br i1 %39, label %40, label %53

40:                                               ; preds = %32
  call void @llvm.lifetime.start.p0(i64 8, ptr %12) #8
  %41 = load ptr, ptr %10, align 8, !tbaa !77
  %42 = getelementptr inbounds nuw %struct.TLSX, ptr %41, i32 0, i32 4
  %43 = load ptr, ptr %42, align 8, !tbaa !80
  store ptr %43, ptr %12, align 8, !tbaa !77
  %44 = load ptr, ptr %12, align 8, !tbaa !77
  %45 = getelementptr inbounds nuw %struct.TLSX, ptr %44, i32 0, i32 4
  %46 = load ptr, ptr %45, align 8, !tbaa !80
  %47 = load ptr, ptr %10, align 8, !tbaa !77
  %48 = getelementptr inbounds nuw %struct.TLSX, ptr %47, i32 0, i32 4
  store ptr %46, ptr %48, align 8, !tbaa !80
  %49 = load ptr, ptr %12, align 8, !tbaa !77
  %50 = getelementptr inbounds nuw %struct.TLSX, ptr %49, i32 0, i32 4
  store ptr null, ptr %50, align 8, !tbaa !80
  %51 = load ptr, ptr %12, align 8, !tbaa !77
  %52 = load ptr, ptr %9, align 8, !tbaa !54
  call void @TLSX_FreeAll(ptr noundef %51, ptr noundef %52)
  store i32 2, ptr %11, align 4
  call void @llvm.lifetime.end.p0(i64 8, ptr %12) #8
  br label %59

53:                                               ; preds = %32, %27
  br label %54

54:                                               ; preds = %53
  %55 = load ptr, ptr %10, align 8, !tbaa !77
  %56 = getelementptr inbounds nuw %struct.TLSX, ptr %55, i32 0, i32 4
  %57 = load ptr, ptr %56, align 8, !tbaa !80
  store ptr %57, ptr %10, align 8, !tbaa !77
  %58 = icmp ne ptr %57, null
  br i1 %58, label %27, label %59, !llvm.loop !106

59:                                               ; preds = %54, %40
  store i32 0, ptr %5, align 4
  store i32 1, ptr %11, align 4
  br label %60

60:                                               ; preds = %59, %19
  call void @llvm.lifetime.end.p0(i64 8, ptr %10) #8
  %61 = load i32, ptr %5, align 4
  ret i32 %61
}

; Function Attrs: nounwind uwtable
define internal i32 @TLSX_SupportedCurve_New(ptr noundef %0, i16 noundef zeroext %1, ptr noundef %2) #0 {
  %4 = alloca i32, align 4
  %5 = alloca ptr, align 8
  %6 = alloca i16, align 2
  %7 = alloca ptr, align 8
  store ptr %0, ptr %5, align 8, !tbaa !130
  store i16 %1, ptr %6, align 2, !tbaa !73
  store ptr %2, ptr %7, align 8, !tbaa !54
  %8 = load ptr, ptr %5, align 8, !tbaa !130
  %9 = icmp eq ptr %8, null
  br i1 %9, label %10, label %11

10:                                               ; preds = %3
  store i32 -173, ptr %4, align 4
  br label %26

11:                                               ; preds = %3
  %12 = call ptr @wolfSSL_Malloc(i64 noundef 16)
  %13 = load ptr, ptr %5, align 8, !tbaa !130
  store ptr %12, ptr %13, align 8, !tbaa !124
  %14 = load ptr, ptr %5, align 8, !tbaa !130
  %15 = load ptr, ptr %14, align 8, !tbaa !124
  %16 = icmp eq ptr %15, null
  br i1 %16, label %17, label %18

17:                                               ; preds = %11
  store i32 -125, ptr %4, align 4
  br label %26

18:                                               ; preds = %11
  %19 = load i16, ptr %6, align 2, !tbaa !73
  %20 = load ptr, ptr %5, align 8, !tbaa !130
  %21 = load ptr, ptr %20, align 8, !tbaa !124
  %22 = getelementptr inbounds nuw %struct.SupportedCurve, ptr %21, i32 0, i32 0
  store i16 %19, ptr %22, align 8, !tbaa !132
  %23 = load ptr, ptr %5, align 8, !tbaa !130
  %24 = load ptr, ptr %23, align 8, !tbaa !124
  %25 = getelementptr inbounds nuw %struct.SupportedCurve, ptr %24, i32 0, i32 1
  store ptr null, ptr %25, align 8, !tbaa !127
  store i32 0, ptr %4, align 4
  br label %26

26:                                               ; preds = %18, %17, %10
  %27 = load i32, ptr %4, align 4
  ret i32 %27
}

; Function Attrs: nounwind uwtable
define ptr @TLSX_Find(ptr noundef %0, i32 noundef %1) #0 {
  %3 = alloca ptr, align 8
  %4 = alloca i32, align 4
  %5 = alloca ptr, align 8
  store ptr %0, ptr %3, align 8, !tbaa !77
  store i32 %1, ptr %4, align 4, !tbaa !12
  call void @llvm.lifetime.start.p0(i64 8, ptr %5) #8
  %6 = load ptr, ptr %3, align 8, !tbaa !77
  store ptr %6, ptr %5, align 8, !tbaa !77
  br label %7

7:                                                ; preds = %18, %2
  %8 = load ptr, ptr %5, align 8, !tbaa !77
  %9 = icmp ne ptr %8, null
  br i1 %9, label %10, label %16

10:                                               ; preds = %7
  %11 = load ptr, ptr %5, align 8, !tbaa !77
  %12 = getelementptr inbounds nuw %struct.TLSX, ptr %11, i32 0, i32 0
  %13 = load i32, ptr %12, align 8, !tbaa !78
  %14 = load i32, ptr %4, align 4, !tbaa !12
  %15 = icmp ne i32 %13, %14
  br label %16

16:                                               ; preds = %10, %7
  %17 = phi i1 [ false, %7 ], [ %15, %10 ]
  br i1 %17, label %18, label %22

18:                                               ; preds = %16
  %19 = load ptr, ptr %5, align 8, !tbaa !77
  %20 = getelementptr inbounds nuw %struct.TLSX, ptr %19, i32 0, i32 4
  %21 = load ptr, ptr %20, align 8, !tbaa !80
  store ptr %21, ptr %5, align 8, !tbaa !77
  br label %7, !llvm.loop !110

22:                                               ; preds = %16
  %23 = load ptr, ptr %5, align 8, !tbaa !77
  call void @llvm.lifetime.end.p0(i64 8, ptr %5) #8
  ret ptr %23
}

; Function Attrs: nounwind uwtable
define internal i32 @TLSX_KeyShare_IsSupported(i32 noundef %0) #0 {
  %2 = alloca i32, align 4
  %3 = alloca i32, align 4
  store i32 %0, ptr %3, align 4, !tbaa !12
  %4 = load i32, ptr %3, align 4, !tbaa !12
  switch i32 %4, label %5 [
    i32 256, label %6
    i32 23, label %6
    i32 24, label %6
    i32 25, label %6
    i32 21, label %6
  ]

5:                                                ; preds = %1
  store i32 0, ptr %2, align 4
  br label %7

6:                                                ; preds = %1, %1, %1, %1, %1
  store i32 1, ptr %2, align 4
  br label %7

7:                                                ; preds = %6, %5
  %8 = load i32, ptr %2, align 4
  ret i32 %8
}

; Function Attrs: nounwind uwtable
define i32 @TLSX_UseSupportedCurve(ptr noundef %0, i16 noundef zeroext %1, ptr noundef %2) #0 {
  %4 = alloca i32, align 4
  %5 = alloca ptr, align 8
  %6 = alloca i16, align 2
  %7 = alloca ptr, align 8
  %8 = alloca ptr, align 8
  %9 = alloca ptr, align 8
  %10 = alloca i32, align 4
  %11 = alloca i32, align 4
  %12 = alloca ptr, align 8
  store ptr %0, ptr %5, align 8, !tbaa !75
  store i16 %1, ptr %6, align 2, !tbaa !73
  store ptr %2, ptr %7, align 8, !tbaa !54
  call void @llvm.lifetime.start.p0(i64 8, ptr %8) #8
  store ptr null, ptr %8, align 8, !tbaa !77
  call void @llvm.lifetime.start.p0(i64 8, ptr %9) #8
  store ptr null, ptr %9, align 8, !tbaa !124
  call void @llvm.lifetime.start.p0(i64 4, ptr %10) #8
  %13 = load ptr, ptr %5, align 8, !tbaa !75
  %14 = icmp eq ptr %13, null
  br i1 %14, label %15, label %16

15:                                               ; preds = %3
  store i32 -173, ptr %4, align 4
  store i32 1, ptr %11, align 4
  br label %68

16:                                               ; preds = %3
  %17 = load i16, ptr %6, align 2, !tbaa !73
  %18 = zext i16 %17 to i32
  %19 = call i32 @TLSX_KeyShare_IsSupported(i32 noundef %18)
  %20 = icmp ne i32 %19, 0
  br i1 %20, label %22, label %21

21:                                               ; preds = %16
  store i32 -173, ptr %4, align 4
  store i32 1, ptr %11, align 4
  br label %68

22:                                               ; preds = %16
  %23 = load ptr, ptr %5, align 8, !tbaa !75
  %24 = load ptr, ptr %23, align 8, !tbaa !77
  %25 = call ptr @TLSX_Find(ptr noundef %24, i32 noundef 10)
  store ptr %25, ptr %8, align 8, !tbaa !77
  %26 = load ptr, ptr %8, align 8, !tbaa !77
  %27 = icmp ne ptr %26, null
  br i1 %27, label %55, label %28

28:                                               ; preds = %22
  %29 = load i16, ptr %6, align 2, !tbaa !73
  %30 = load ptr, ptr %7, align 8, !tbaa !54
  %31 = call i32 @TLSX_SupportedCurve_New(ptr noundef %9, i16 noundef zeroext %29, ptr noundef %30)
  store i32 %31, ptr %10, align 4, !tbaa !12
  %32 = load i32, ptr %10, align 4, !tbaa !12
  %33 = icmp ne i32 %32, 0
  br i1 %33, label %34, label %36

34:                                               ; preds = %28
  %35 = load i32, ptr %10, align 4, !tbaa !12
  store i32 %35, ptr %4, align 4
  store i32 1, ptr %11, align 4
  br label %68

36:                                               ; preds = %28
  %37 = load ptr, ptr %5, align 8, !tbaa !75
  %38 = load ptr, ptr %9, align 8, !tbaa !124
  %39 = load ptr, ptr %7, align 8, !tbaa !54
  %40 = call i32 @TLSX_Push(ptr noundef %37, i32 noundef 10, ptr noundef %38, ptr noundef %39)
  store i32 %40, ptr %10, align 4, !tbaa !12
  %41 = load i32, ptr %10, align 4, !tbaa !12
  %42 = icmp ne i32 %41, 0
  br i1 %42, label %43, label %54

43:                                               ; preds = %36
  br label %44

44:                                               ; preds = %43
  call void @llvm.lifetime.start.p0(i64 8, ptr %12) #8
  %45 = load ptr, ptr %9, align 8, !tbaa !124
  store ptr %45, ptr %12, align 8, !tbaa !54
  %46 = load ptr, ptr %12, align 8, !tbaa !54
  %47 = icmp ne ptr %46, null
  br i1 %47, label %48, label %50

48:                                               ; preds = %44
  %49 = load ptr, ptr %12, align 8, !tbaa !54
  call void @wolfSSL_Free(ptr noundef %49)
  br label %50

50:                                               ; preds = %48, %44
  call void @llvm.lifetime.end.p0(i64 8, ptr %12) #8
  br label %51

51:                                               ; preds = %50
  br label %52

52:                                               ; preds = %51
  %53 = load i32, ptr %10, align 4, !tbaa !12
  store i32 %53, ptr %4, align 4
  store i32 1, ptr %11, align 4
  br label %68

54:                                               ; preds = %36
  br label %67

55:                                               ; preds = %22
  %56 = load ptr, ptr %8, align 8, !tbaa !77
  %57 = getelementptr inbounds nuw %struct.TLSX, ptr %56, i32 0, i32 1
  %58 = load ptr, ptr %57, align 8, !tbaa !103
  %59 = load i16, ptr %6, align 2, !tbaa !73
  %60 = load ptr, ptr %7, align 8, !tbaa !54
  %61 = call i32 @TLSX_SupportedCurve_Append(ptr noundef %58, i16 noundef zeroext %59, ptr noundef %60)
  store i32 %61, ptr %10, align 4, !tbaa !12
  %62 = load i32, ptr %10, align 4, !tbaa !12
  %63 = icmp ne i32 %62, 0
  br i1 %63, label %64, label %66

64:                                               ; preds = %55
  %65 = load i32, ptr %10, align 4, !tbaa !12
  store i32 %65, ptr %4, align 4
  store i32 1, ptr %11, align 4
  br label %68

66:                                               ; preds = %55
  br label %67

67:                                               ; preds = %66, %54
  store i32 1, ptr %4, align 4
  store i32 1, ptr %11, align 4
  br label %68

68:                                               ; preds = %67, %64, %52, %34, %21, %15
  call void @llvm.lifetime.end.p0(i64 4, ptr %10) #8
  call void @llvm.lifetime.end.p0(i64 8, ptr %9) #8
  call void @llvm.lifetime.end.p0(i64 8, ptr %8) #8
  %69 = load i32, ptr %4, align 4
  ret i32 %69
}