; Function Attrs: nounwind uwtable
define range(i32 -173, 2) i32 @TLSX_UseSupportedCurve(ptr noundef captures(address_is_null) %0, i16 noundef zeroext %1, ptr readnone captures(none) %2) local_unnamed_addr #0 {
  %4 = icmp eq ptr %0, null
  br i1 %4, label %TLSX_SupportedCurve_New.exit, label %5

5:                                                ; preds = %3
  switch i16 %1, label %TLSX_SupportedCurve_New.exit [
    i16 256, label %TLSX_KeyShare_IsSupported.exit
    i16 23, label %TLSX_KeyShare_IsSupported.exit
    i16 24, label %TLSX_KeyShare_IsSupported.exit
    i16 25, label %TLSX_KeyShare_IsSupported.exit
    i16 21, label %TLSX_KeyShare_IsSupported.exit
  ]

TLSX_KeyShare_IsSupported.exit:                   ; preds = %5, %5, %5, %5, %5
  %6 = load ptr, ptr %0, align 8, !tbaa !59
  %.not6.i = icmp eq ptr %6, null
  br i1 %.not6.i, label %.loopexit, label %.lr.ph.i

.lr.ph.i:                                         ; preds = %TLSX_KeyShare_IsSupported.exit, %8
  %.07.i = phi ptr [ %10, %8 ], [ %6, %TLSX_KeyShare_IsSupported.exit ]
  %7 = load i32, ptr %.07.i, align 8, !tbaa !60
  %.not5.i = icmp eq i32 %7, 10
  br i1 %.not5.i, label %TLSX_Find.exit, label %8

8:                                                ; preds = %.lr.ph.i
  %9 = getelementptr inbounds nuw i8, ptr %.07.i, i64 24
  %10 = load ptr, ptr %9, align 8, !tbaa !63
  %.not.i = icmp eq ptr %10, null
  br i1 %.not.i, label %.loopexit, label %.lr.ph.i, !llvm.loop !101

.loopexit:                                        ; preds = %8, %TLSX_KeyShare_IsSupported.exit
  %11 = tail call ptr @wolfSSL_Malloc(i64 noundef 16) #17
  %12 = icmp eq ptr %11, null
  br i1 %12, label %TLSX_SupportedCurve_New.exit, label %13

13:                                               ; preds = %.loopexit
  store i16 %1, ptr %11, align 8, !tbaa !110
  %14 = getelementptr inbounds nuw i8, ptr %11, i64 8
  store ptr null, ptr %14, align 8, !tbaa !90
  %15 = tail call ptr @wolfSSL_Malloc(i64 noundef 32) #17
  %.not.i.i = icmp eq ptr %15, null
  br i1 %.not.i.i, label %TLSX_Push.exit, label %16

16:                                               ; preds = %13
  store i32 10, ptr %15, align 8, !tbaa !60
  %17 = getelementptr inbounds nuw i8, ptr %15, i64 8
  store ptr %11, ptr %17, align 8, !tbaa !82
  %18 = getelementptr inbounds nuw i8, ptr %15, i64 20
  store i8 0, ptr %18, align 4, !tbaa !83
  %19 = getelementptr inbounds nuw i8, ptr %15, i64 24
  store ptr null, ptr %19, align 8, !tbaa !63
  %20 = load ptr, ptr %0, align 8, !tbaa !59
  store ptr %20, ptr %19, align 8, !tbaa !63
  store ptr %15, ptr %0, align 8, !tbaa !59
  br label %21

21:                                               ; preds = %24, %16
  %.018.i = phi ptr [ %15, %16 ], [ %23, %24 ]
  %22 = getelementptr inbounds nuw i8, ptr %.018.i, i64 24
  %23 = load ptr, ptr %22, align 8, !tbaa !63
  %.not.i31 = icmp eq ptr %23, null
  br i1 %.not.i31, label %TLSX_SupportedCurve_New.exit, label %24

24:                                               ; preds = %21
  %25 = load i32, ptr %23, align 8, !tbaa !60
  %26 = icmp eq i32 %25, 10
  br i1 %26, label %27, label %21, !llvm.loop !99

27:                                               ; preds = %24
  %28 = getelementptr inbounds nuw i8, ptr %.018.i, i64 24
  %29 = getelementptr inbounds nuw i8, ptr %23, i64 24
  %30 = load ptr, ptr %29, align 8, !tbaa !63
  store ptr %30, ptr %28, align 8, !tbaa !63
  store ptr null, ptr %29, align 8, !tbaa !63
  tail call void @TLSX_FreeAll(ptr noundef nonnull %23, ptr readnone poison)
  br label %TLSX_SupportedCurve_New.exit

TLSX_Push.exit:                                   ; preds = %13
  tail call void @wolfSSL_Free(ptr noundef nonnull %11) #17
  br label %TLSX_SupportedCurve_New.exit

TLSX_Find.exit:                                   ; preds = %.lr.ph.i
  %31 = getelementptr inbounds nuw i8, ptr %.07.i, i64 8
  %32 = load ptr, ptr %31, align 8, !tbaa !82
  br label %33

33:                                               ; preds = %37, %TLSX_Find.exit
  %.08.i = phi ptr [ %32, %TLSX_Find.exit ], [ %39, %37 ]
  %.not.i33 = icmp eq ptr %.08.i, null
  br i1 %.not.i33, label %TLSX_SupportedCurve_New.exit, label %34

34:                                               ; preds = %33
  %35 = load i16, ptr %.08.i, align 8, !tbaa !110
  %36 = icmp eq i16 %35, %1
  br i1 %36, label %TLSX_SupportedCurve_New.exit, label %37

37:                                               ; preds = %34
  %38 = getelementptr inbounds nuw i8, ptr %.08.i, i64 8
  %39 = load ptr, ptr %38, align 8, !tbaa !90
  %40 = icmp eq ptr %39, null
  br i1 %40, label %41, label %33, !llvm.loop !112

41:                                               ; preds = %37
  %42 = getelementptr inbounds nuw i8, ptr %.08.i, i64 8
  %43 = tail call ptr @wolfSSL_Malloc(i64 noundef 16) #17
  store ptr %43, ptr %42, align 8, !tbaa !113
  %44 = icmp eq ptr %43, null
  br i1 %44, label %TLSX_SupportedCurve_New.exit, label %45

45:                                               ; preds = %41
  store i16 %1, ptr %43, align 8, !tbaa !110
  %46 = getelementptr inbounds nuw i8, ptr %43, i64 8
  store ptr null, ptr %46, align 8, !tbaa !90
  br label %TLSX_SupportedCurve_New.exit

TLSX_SupportedCurve_New.exit:                     ; preds = %34, %33, %21, %45, %27, %5, %41, %.loopexit, %TLSX_Push.exit, %3
  %.0 = phi i32 [ -173, %3 ], [ -125, %TLSX_Push.exit ], [ -125, %.loopexit ], [ -125, %41 ], [ -173, %5 ], [ 1, %27 ], [ 1, %45 ], [ 1, %21 ], [ 1, %34 ], [ -173, %33 ]
  ret i32 %.0
}